target datalayout = "e-m:e-p270:32:32-p271:32:32-p272:64:64-i64:64-i128:128-f80:128-n8:16:32:64-S128"
target triple = "x86_64-pc-linux-gnu"

%class.QString = type { %struct.QArrayDataPointer }
%struct.QArrayDataPointer = type { ptr, ptr, i64 }
%class.IOConsoleDialog = type { %class.GeometryStateDialog, ptr, ptr, ptr, ptr, ptr }
%class.GeometryStateDialog = type { %class.QDialog, %class.QString }
%class.QDialog = type { %class.QWidget }
%class.QWidget = type { %class.QObject, %class.QPaintDevice.base, ptr }
%class.QObject = type { ptr, %class.QScopedPointer }
%class.QScopedPointer = type { ptr }
%class.QPaintDevice.base = type <{ ptr, i16 }>
%class.Ui_IOConsoleDialog = type { ptr, ptr, ptr, ptr, ptr, ptr, ptr }

; Function Attrs: mustprogress uwtable
define void @_ZN15IOConsoleDialog17on_clearActivatedEv(ptr noundef nonnull align 8 dereferenceable(104) %0) #0 align 2 {
  %2 = alloca ptr, align 8
  store ptr %0, ptr %2, align 8
  %3 = load ptr, ptr %2, align 8
  %4 = getelementptr inbounds %class.IOConsoleDialog, ptr %3, i32 0, i32 1
  %5 = load ptr, ptr %4, align 8
  %6 = getelementptr inbounds %class.Ui_IOConsoleDialog, ptr %5, i32 0, i32 3
  %7 = load ptr, ptr %6, align 8
  call void @_ZN9QTextEdit5clearEv(ptr noundef nonnull align 8 dereferenceable(40) %7)
  %8 = getelementptr inbounds %class.IOConsoleDialog, ptr %3, i32 0, i32 1
  %9 = load ptr, ptr %8, align 8
  %10 = getelementptr inbounds %class.Ui_IOConsoleDialog, ptr %9, i32 0, i32 4
  %11 = load ptr, ptr %10, align 8
  call void @_ZN9QTextEdit5clearEv(ptr noundef nonnull align 8 dereferenceable(40) %11)
  %12 = getelementptr inbounds %class.IOConsoleDialog, ptr %3, i32 0, i32 1
  %13 = load ptr, ptr %12, align 8
  %14 = getelementptr inbounds %class.Ui_IOConsoleDialog, ptr %13, i32 0, i32 5
  %15 = load ptr, ptr %14, align 8
  call void @_ZN6QLabel5clearEv(ptr noundef nonnull align 8 dereferenceable(40) %15)
  ret void
}