; Function Attrs: mustprogress uwtable
define void @_ZN15IOConsoleDialog17on_clearActivatedEv(ptr nocapture noundef nonnull readonly align 8 dereferenceable(104) %0) #0 align 2 {
  %2 = getelementptr inbounds i8, ptr %0, i64 64
  %3 = load ptr, ptr %2, align 8
  %4 = getelementptr inbounds i8, ptr %3, i64 24
  %5 = load ptr, ptr %4, align 8
  tail call void @_ZN9QTextEdit5clearEv(ptr noundef nonnull align 8 dereferenceable(40) %5)
  %6 = load ptr, ptr %2, align 8
  %7 = getelementptr inbounds i8, ptr %6, i64 32
  %8 = load ptr, ptr %7, align 8
  tail call void @_ZN9QTextEdit5clearEv(ptr noundef nonnull align 8 dereferenceable(40) %8)
  %9 = load ptr, ptr %2, align 8
  %10 = getelementptr inbounds i8, ptr %9, i64 40
  %11 = load ptr, ptr %10, align 8
  tail call void @_ZN6QLabel5clearEv(ptr noundef nonnull align 8 dereferenceable(40) %11)
  ret void
}